target datalayout = "e-m:e-p270:32:32-p271:32:32-p272:64:64-i64:64-i128:128-f80:128-n8:16:32:64-S128"
target triple = "x86_64-pc-linux-gnu"

; Function Attrs: null_pointer_is_valid sspstrong uwtable
define internal zeroext i1 @dissect_artnet_heur(ptr noundef %0, ptr noundef %1, ptr noundef %2, ptr noundef %3) #0 {
  %5 = alloca i1, align 1
  %6 = alloca ptr, align 8
  %7 = alloca ptr, align 8
  %8 = alloca ptr, align 8
  %9 = alloca ptr, align 8
  %10 = alloca i64, align 8
  %11 = alloca i32, align 4
  store ptr %0, ptr %6, align 8
  store ptr %1, ptr %7, align 8
  store ptr %2, ptr %8, align 8
  store ptr %3, ptr %9, align 8
  call void @llvm.lifetime.start.p0(i64 8, ptr %10) #7
  %12 = load ptr, ptr %6, align 8
  %13 = call i32 @tvb_captured_length(ptr noundef %12)
  %14 = icmp ult i32 %13, 8
  br i1 %14, label %15, label %16

15:                                               ; preds = %4
  store i1 false, ptr %5, align 1
  store i32 1, ptr %11, align 4
  br label %28

16:                                               ; preds = %4
  %17 = load ptr, ptr %6, align 8
  %18 = call i64 @tvb_get_ntoh64(ptr noundef %17, i32 noundef 0)
  store i64 %18, ptr %10, align 8
  %19 = load i64, ptr %10, align 8
  %20 = icmp ne i64 %19, 4715959497747952640
  br i1 %20, label %21, label %22

21:                                               ; preds = %16
  store i1 false, ptr %5, align 1
  store i32 1, ptr %11, align 4
  br label %28

22:                                               ; preds = %16
  %23 = load ptr, ptr %6, align 8
  %24 = load ptr, ptr %7, align 8
  %25 = load ptr, ptr %8, align 8
  %26 = load ptr, ptr %9, align 8
  %27 = call i32 @dissect_artnet(ptr noundef %23, ptr noundef %24, ptr noundef %25, ptr noundef %26)
  store i1 true, ptr %5, align 1
  store i32 1, ptr %11, align 4
  br label %28

28:                                               ; preds = %22, %21, %15
  call void @llvm.lifetime.end.p0(i64 8, ptr %10) #7
  %29 = load i1, ptr %5, align 1
  ret i1 %29
}