; Function Attrs: null_pointer_is_valid sspstrong uwtable
define internal noundef zeroext i1 @dissect_artnet_heur(ptr noundef %0, ptr noundef %1, ptr noundef %2, ptr readnone captures(none) %3) #0 {
  %5 = tail call i32 @tvb_captured_length(ptr noundef %0)
  %6 = icmp ult i32 %5, 8
  br i1 %6, label %11, label %7

7:                                                ; preds = %4
  %8 = tail call i64 @tvb_get_ntoh64(ptr noundef %0, i32 noundef 0)
  %.not = icmp eq i64 %8, 4715959497747952640
  br i1 %.not, label %9, label %11

9:                                                ; preds = %7
  %10 = tail call i32 @dissect_artnet(ptr noundef %0, ptr noundef %1, ptr noundef %2, ptr poison)
  br label %11

11:                                               ; preds = %7, %4, %9
  %.0 = phi i1 [ true, %9 ], [ false, %4 ], [ false, %7 ]
  ret i1 %.0
}